Certificate:
    Data:
        Version: 3 (0x2)
        Serial Number: 6 (0x6)
    Signature Algorithm: sha1WithRSAEncryption
        Issuer: C=CN, L=Shanghai, O=Hundsun, OU=FUND, CN=Lele
        Validity
            Not Before: Sep 20 06:00:30 2015 GMT
            Not After : Sep 19 06:00:30 2016 GMT
        Subject: C=CN, L=Shanghai, O=HUNDSUN, OU=FUND, CN=CLIENT
        Subject Public Key Info:
            Public Key Algorithm: rsaEncryption
                Public-Key: (2048 bit)
                Modulus:
                    00:c4:82:a4:8b:1b:17:5d:1a:df:b2:3c:42:b3:7a:
                    68:85:b4:29:8a:9f:39:45:df:1c:4a:eb:8a:0a:d8:
                    0c:60:a4:6b:80:e6:8a:2b:c5:3e:85:bd:a1:6f:b5:
                    2c:13:11:f0:29:59:86:88:3f:02:2c:67:23:01:9b:
                    84:92:0d:e8:7f:2f:70:df:39:4c:e9:55:53:39:f6:
                    64:fd:fd:1f:18:76:09:f8:6e:13:24:9e:ce:f8:52:
                    2b:b3:c2:f3:a8:77:4e:8a:90:5c:f3:a3:83:db:40:
                    61:e0:94:df:74:7a:bb:8e:dd:50:3a:e9:df:bc:5a:
                    bf:17:4b:f0:d7:be:f6:38:ce:a9:4b:01:9d:e9:38:
                    f7:a3:31:3d:93:35:04:f4:fa:14:5a:68:b1:01:85:
                    a9:cc:f8:ed:05:9e:53:64:cf:e5:15:cd:ec:63:ca:
                    1a:10:4c:41:2f:5d:50:71:fc:ca:d4:af:61:2b:84:
                    1c:b0:2f:49:7d:d9:63:63:71:44:ac:d2:dd:47:ff:
                    dc:17:f0:60:f3:3c:fa:3e:60:d4:52:b0:6d:de:39:
                    8e:e8:93:c1:a9:c0:86:20:99:27:17:7d:a7:a5:a8:
                    53:4f:05:85:8e:86:df:3a:13:3e:73:44:bb:3f:62:
                    f1:ff:c0:fb:77:54:ab:ab:21:cd:a4:ee:8e:84:b6:
                    ad:59
                Exponent: 65537 (0x10001)
        X509v3 extensions:
            X509v3 Basic Constraints: 
                CA:FALSE
            Netscape Cert Type: 
                SSL Client
            Netscape Comment: 
                OpenSSL Generated Certificate
            X509v3 Subject Key Identifier: 
                E5:A8:F4:50:C6:E5:67:1C:2E:CB:68:D3:2C:EF:88:81:B3:05:1D:67
            X509v3 Authority Key Identifier: 
                keyid:49:F7:B1:8C:53:3E:59:23:5F:EA:46:93:F9:5E:C4:95:A7:00:51:5A

    Signature Algorithm: sha1WithRSAEncryption
         bd:8e:0c:1a:66:fc:c8:0a:27:5b:e9:fd:b3:c6:dd:2a:4d:26:
         da:e5:e0:41:02:43:52:76:94:1f:34:eb:3d:e9:a6:4e:ef:08:
         5a:1e:4c:fb:b7:af:9e:71:f0:ab:e4:2e:df:3a:31:be:a8:67:
         03:71:06:cd:db:66:b0:a5:ec:5d:36:01:86:37:d4:51:35:a9:
         7d:64:c2:45:23:d3:76:07:95:17:45:c4:e1:cc:2b:36:15:45:
         4a:23:12:89:28:89:f4:22:55:f6:f7:91:dd:31:50:96:da:72:
         76:1e:00:73:c0:44:c3:c7:c3:64:f6:98:a8:c4:f8:33:3e:6f:
         6b:81:8b:8f:5b:47:db:13:05:fc:a1:77:eb:f1:2f:71:3d:02:
         f1:19:c7:84:e3:0c:13:a2:cc:9c:8d:5c:ac:62:97:1b:a6:ee:
         d2:9a:18:a5:60:8e:d0:60:53:38:d1:06:68:0e:04:42:5a:ac:
         b8:cf:b1:03:55:32:f1:ce:b2:15:91:b0:40:c6:73:83:72:8b:
         fb:f7:46:f7:fd:70:39:9a:19:ce:f6:dc:43:d1:55:d1:d2:8e:
         84:f9:6f:40:92:f0:02:78:bc:6c:04:00:a7:22:b0:c2:b2:db:
         e1:7b:da:9b:05:0c:c0:67:f3:73:64:05:d2:60:bb:dc:3a:9e:
         56:50:2b:4c:e5:19:b1:1b:09:39:16:42:81:63:bd:da:2e:f1:
         05:ac:c3:2a:c1:f4:23:1d:db:f3:61:b8:c5:12:1f:d3:35:86:
         9f:fc:06:d0:5d:26:9d:e1:13:02:42:5b:48:6b:5b:2b:81:0a:
         b1:fc:4e:85:81:c5:20:1b:66:c7:03:23:85:45:41:41:d4:22:
         88:ea:12:d9:aa:6e:9e:9c:3b:70:a0:99:7c:3e:d3:48:dc:55:
         81:12:e0:a8:de:86:60:f3:21:c2:43:20:9c:86:1f:5e:ad:21:
         6c:58:33:58:10:1b:fb:f2:1b:a8:56:b5:0b:7c:54:f8:5e:23:
         a9:35:a6:d1:bd:54:38:70:32:5b:db:17:97:3b:fb:54:c1:53:
         58:4e:f4:6d:ce:0a:00:83:29:c0:a8:ba:48:93:8f:e5:eb:d9:
         fb:6b:f1:68:5c:38:45:81:8f:03:91:33:bf:e7:0d:e5:05:4f:
         f3:16:d8:c9:88:18:63:26:80:1b:8b:69:49:40:bb:cd:2c:14:
         d3:63:ae:78:84:1f:0b:66:e7:82:f9:6b:c5:4e:59:f3:cf:ef:
         38:28:b7:5d:28:d6:f8:18:43:06:66:7c:8a:ae:cc:ee:28:b1:
         ad:77:9f:09:b1:f4:9a:22:8b:be:9e:aa:f3:ba:69:62:3d:50:
         35:9b:79:b9:a7:e3:1f:2a
-----BEGIN CERTIFICATE-----
MIIErTCCApWgAwIBAgIBBjANBgkqhkiG9w0BAQUFADBQMQswCQYDVQQGEwJDTjER
MA8GA1UEBwwIU2hhbmdoYWkxEDAOBgNVBAoMB0h1bmRzdW4xDTALBgNVBAsMBEZV
TkQxDTALBgNVBAMMBExlbGUwHhcNMTUwOTIwMDYwMDMwWhcNMTYwOTE5MDYwMDMw
WjBSMQswCQYDVQQGEwJDTjERMA8GA1UEBwwIU2hhbmdoYWkxEDAOBgNVBAoMB0hV
TkRTVU4xDTALBgNVBAsMBEZVTkQxDzANBgNVBAMMBkNMSUVOVDCCASIwDQYJKoZI
hvcNAQEBBQADggEPADCCAQoCggEBAMSCpIsbF10a37I8QrN6aIW0KYqfOUXfHErr
igrYDGCka4DmiivFPoW9oW+1LBMR8ClZhog/AixnIwGbhJIN6H8vcN85TOlVUzn2
ZP39Hxh2CfhuEySezvhSK7PC86h3ToqQXPOjg9tAYeCU33R6u47dUDrp37xavxdL
8Ne+9jjOqUsBnek496MxPZM1BPT6FFposQGFqcz47QWeU2TP5RXN7GPKGhBMQS9d
UHH8ytSvYSuEHLAvSX3ZY2NxRKzS3Uf/3BfwYPM8+j5g1FKwbd45juiTwanAhiCZ
Jxd9p6WoU08FhY6G3zoTPnNEuz9i8f/A+3dUq6shzaTujoS2rVkCAwEAAaOBjzCB
jDAJBgNVHRMEAjAAMBEGCWCGSAGG+EIBAQQEAwIHgDAsBglghkgBhvhCAQ0EHxYd
T3BlblNTTCBHZW5lcmF0ZWQgQ2VydGlmaWNhdGUwHQYDVR0OBBYEFOWo9FDG5Wcc
Lsto0yzviIGzBR1nMB8GA1UdIwQYMBaAFEn3sYxTPlkjX+pGk/lexJWnAFFaMA0G
CSqGSIb3DQEBBQUAA4ICAQC9jgwaZvzICidb6f2zxt0qTSba5eBBAkNSdpQfNOs9
6aZO7whaHkz7t6+ecfCr5C7fOjG+qGcDcQbN22awpexdNgGGN9RRNal9ZMJFI9N2
B5UXRcThzCs2FUVKIxKJKIn0IlX295HdMVCW2nJ2HgBzwETDx8Nk9pioxPgzPm9r
gYuPW0fbEwX8oXfr8S9xPQLxGceE4wwTosycjVysYpcbpu7SmhilYI7QYFM40QZo
DgRCWqy4z7EDVTLxzrIVkbBAxnODcov790b3/XA5mhnO9txD0VXR0o6E+W9AkvAC
eLxsBACnIrDCstvhe9qbBQzAZ/NzZAXSYLvcOp5WUCtM5RmxGwk5FkKBY73aLvEF
rMMqwfQjHdvzYbjFEh/TNYaf/AbQXSad4RMCQltIa1srgQqx/E6FgcUgG2bHAyOF
RUFB1CKI6hLZqm6enDtwoJl8PtNI3FWBEuCo3oZg8yHCQyCchh9erSFsWDNYEBv7
8huoVrULfFT4XiOpNabRvVQ4cDJb2xeXO/tUwVNYTvRtzgoAgynAqLpIk4/l69n7
a/FoXDhFgY8DkTO/5w3lBU/zFtjJiBhjJoAbi2lJQLvNLBTTY654hB8LZueC+WvF
Tlnzz+84KLddKNb4GEMGZnyKrszuKLGtd58JsfSaIou+nqrzumliPVA1m3m5p+Mf
Kg==
-----END CERTIFICATE-----
