Certificate:
    Data:
        Version: 3 (0x2)
        Serial Number: 4 (0x4)
    Signature Algorithm: sha1WithRSAEncryption
        Issuer: C=CN, L=Shanghai, O=Hundsun, OU=FUND, CN=Lele
        Validity
            Not Before: Sep 20 05:49:43 2015 GMT
            Not After : Sep 19 05:49:43 2016 GMT
        Subject: C=CN, L=Shanghai, O=HUNDSUN, OU=FUND, CN=SERVER
        Subject Public Key Info:
            Public Key Algorithm: rsaEncryption
                Public-Key: (2048 bit)
                Modulus:
                    00:c1:b7:5f:79:03:ac:80:5f:97:60:20:ef:7e:96:
                    ee:9e:e0:38:bb:d8:19:50:46:e6:a8:57:90:83:41:
                    31:27:7c:bc:45:6c:2b:0e:ed:7d:09:56:34:04:17:
                    d6:88:f8:2e:fd:f6:b7:60:31:80:b2:8f:da:27:35:
                    27:75:63:5f:49:53:5d:ff:64:22:4d:02:1e:2d:f4:
                    76:dc:e2:58:b0:a7:b4:9d:91:61:13:5a:d9:22:b2:
                    96:a3:e2:5c:10:41:bb:53:28:63:30:a9:98:89:47:
                    99:32:f1:89:f1:d7:fe:79:74:b6:b3:2a:56:eb:d3:
                    80:e1:d5:c2:80:c4:4e:f7:b3:7b:7e:bb:64:a6:c4:
                    3d:71:63:f7:2e:71:00:66:54:02:97:93:19:58:26:
                    1f:93:fa:bd:5e:f3:ee:21:86:62:60:9c:b7:35:70:
                    b1:f5:04:ec:d7:36:c9:ce:b1:85:9f:e0:19:bc:de:
                    25:da:f3:aa:2e:a0:08:35:59:b1:9f:12:7c:af:70:
                    6c:e7:c8:8c:9a:5d:74:b3:3f:33:71:8f:a2:82:eb:
                    4e:43:3b:e5:f8:d7:29:9f:7f:83:aa:b9:a5:11:dc:
                    a6:e4:7d:f3:09:22:71:4d:a4:a2:81:96:53:03:92:
                    cc:7d:46:36:96:a3:72:10:88:40:48:cc:b3:de:4c:
                    19:7b
                Exponent: 65537 (0x10001)
        X509v3 extensions:
            X509v3 Basic Constraints: 
                CA:FALSE
            Netscape Cert Type: 
                SSL Server
            Netscape Comment: 
                OpenSSL Generated Certificate
            X509v3 Subject Key Identifier: 
                BF:59:6A:D9:05:45:C4:DA:D7:98:5E:12:A3:86:40:AD:7B:35:D3:49
            X509v3 Authority Key Identifier: 
                keyid:49:F7:B1:8C:53:3E:59:23:5F:EA:46:93:F9:5E:C4:95:A7:00:51:5A

    Signature Algorithm: sha1WithRSAEncryption
         c5:8f:d6:10:2d:c0:b5:ae:00:1f:f1:03:6c:94:2e:0b:14:6f:
         43:b3:c9:f7:d3:5b:aa:8f:10:20:20:34:4a:ff:e7:e0:12:27:
         3b:ff:c3:55:3f:e2:e7:2b:21:28:f5:dc:eb:b9:cc:ae:9c:7a:
         33:be:78:b5:84:fe:3e:27:92:1c:81:02:f4:a1:db:6c:f0:45:
         a1:7e:62:1e:2f:84:48:18:2f:f1:2f:91:47:16:a6:2b:44:4a:
         ef:cb:1b:34:e3:90:b6:16:83:45:1c:2a:2b:7b:16:c7:f3:8a:
         ba:28:dd:c4:df:c0:8d:8b:a9:be:1e:7d:41:73:14:e0:32:f6:
         6b:dc:ce:af:08:2e:60:82:c9:d4:f3:47:45:35:28:1a:b5:6b:
         0e:cf:60:50:d7:95:bf:21:79:3c:cc:42:83:51:fc:99:db:1f:
         82:09:33:68:f6:5a:4c:74:fb:f8:09:58:b9:f7:f2:02:e6:c9:
         7a:02:05:e8:88:c6:17:72:c8:47:c3:53:2d:df:b2:8b:e9:2b:
         ad:6b:ea:ea:2c:c8:2f:98:12:eb:71:a4:32:f5:37:bc:eb:16:
         08:c8:cd:b7:3e:65:2c:2a:56:81:47:0c:c4:40:b8:0e:b8:a5:
         24:63:44:f4:e9:e2:68:d1:44:8d:d2:2c:c1:64:57:f1:85:26:
         dd:6d:13:68:0f:6c:87:78:3e:cc:64:d5:1d:6c:de:69:6c:df:
         b7:d5:b1:e0:3d:a8:c5:ff:b2:9c:fe:ce:e3:39:ee:1b:cc:d5:
         9a:7a:e1:bc:d7:14:46:18:b8:87:52:ab:ff:4b:8b:ac:56:c4:
         f6:c7:54:e7:41:3a:02:93:6a:d4:a7:9f:28:fa:5d:e7:b3:b9:
         2a:6d:57:98:c3:e2:43:32:6c:ec:e6:9d:1a:e2:d0:95:89:cb:
         36:b6:4b:ba:11:5d:ce:ee:f7:2b:db:3c:a0:12:09:47:cf:45:
         ba:2b:ae:fe:16:4a:26:f9:b1:ef:06:64:1a:53:07:19:27:28:
         8b:30:04:30:49:49:84:c0:fa:fa:aa:f9:8b:4e:a5:55:b8:6a:
         f5:6a:19:a9:d1:13:4a:dd:df:f6:a4:9e:6b:23:f2:d1:5e:b9:
         f1:3a:6d:32:65:ee:92:60:81:87:ac:46:cf:3b:d5:02:9a:a9:
         a2:b2:e0:f9:0f:7e:32:50:8b:f7:6d:ed:d4:01:50:02:e6:78:
         da:c6:5b:03:38:2c:b7:1c:d4:72:9c:b4:b5:21:75:45:e2:1e:
         ba:be:52:5f:d6:bf:9a:6a:43:69:9d:33:d7:11:8a:fa:66:8c:
         e9:16:0a:1d:60:c2:15:ca:fa:af:f4:8a:42:3b:2d:36:23:cb:
         b0:2d:e4:56:0b:04:d0:4b
-----BEGIN CERTIFICATE-----
MIIErTCCApWgAwIBAgIBBDANBgkqhkiG9w0BAQUFADBQMQswCQYDVQQGEwJDTjER
MA8GA1UEBwwIU2hhbmdoYWkxEDAOBgNVBAoMB0h1bmRzdW4xDTALBgNVBAsMBEZV
TkQxDTALBgNVBAMMBExlbGUwHhcNMTUwOTIwMDU0OTQzWhcNMTYwOTE5MDU0OTQz
WjBSMQswCQYDVQQGEwJDTjERMA8GA1UEBwwIU2hhbmdoYWkxEDAOBgNVBAoMB0hV
TkRTVU4xDTALBgNVBAsMBEZVTkQxDzANBgNVBAMMBlNFUlZFUjCCASIwDQYJKoZI
hvcNAQEBBQADggEPADCCAQoCggEBAMG3X3kDrIBfl2Ag736W7p7gOLvYGVBG5qhX
kINBMSd8vEVsKw7tfQlWNAQX1oj4Lv32t2AxgLKP2ic1J3VjX0lTXf9kIk0CHi30
dtziWLCntJ2RYRNa2SKylqPiXBBBu1MoYzCpmIlHmTLxifHX/nl0trMqVuvTgOHV
woDETveze367ZKbEPXFj9y5xAGZUApeTGVgmH5P6vV7z7iGGYmCctzVwsfUE7Nc2
yc6xhZ/gGbzeJdrzqi6gCDVZsZ8SfK9wbOfIjJpddLM/M3GPooLrTkM75fjXKZ9/
g6q5pRHcpuR98wkicU2kooGWUwOSzH1GNpajchCIQEjMs95MGXsCAwEAAaOBjzCB
jDAJBgNVHRMEAjAAMBEGCWCGSAGG+EIBAQQEAwIGQDAsBglghkgBhvhCAQ0EHxYd
T3BlblNTTCBHZW5lcmF0ZWQgQ2VydGlmaWNhdGUwHQYDVR0OBBYEFL9ZatkFRcTa
15heEqOGQK17NdNJMB8GA1UdIwQYMBaAFEn3sYxTPlkjX+pGk/lexJWnAFFaMA0G
CSqGSIb3DQEBBQUAA4ICAQDFj9YQLcC1rgAf8QNslC4LFG9Ds8n301uqjxAgIDRK
/+fgEic7/8NVP+LnKyEo9dzrucyunHozvni1hP4+J5IcgQL0odts8EWhfmIeL4RI
GC/xL5FHFqYrRErvyxs045C2FoNFHCorexbH84q6KN3E38CNi6m+Hn1BcxTgMvZr
3M6vCC5ggsnU80dFNSgatWsOz2BQ15W/IXk8zEKDUfyZ2x+CCTNo9lpMdPv4CVi5
9/IC5sl6AgXoiMYXcshHw1Mt37KL6Suta+rqLMgvmBLrcaQy9Te86xYIyM23PmUs
KlaBRwzEQLgOuKUkY0T06eJo0USN0izBZFfxhSbdbRNoD2yHeD7MZNUdbN5pbN+3
1bHgPajF/7Kc/s7jOe4bzNWaeuG81xRGGLiHUqv/S4usVsT2x1TnQToCk2rUp58o
+l3ns7kqbVeYw+JDMmzs5p0a4tCVics2tku6EV3O7vcr2zygEglHz0W6K67+Fkom
+bHvBmQaUwcZJyiLMAQwSUmEwPr6qvmLTqVVuGr1ahmp0RNK3d/2pJ5rI/LRXrnx
Om0yZe6SYIGHrEbPO9UCmqmisuD5D34yUIv3be3UAVAC5njaxlsDOCy3HNRynLS1
IXVF4h66vlJf1r+aakNpnTPXEYr6ZozpFgodYMIVyvqv9IpCOy02I8uwLeRWCwTQ
Sw==
-----END CERTIFICATE-----
