Certificate:
    Data:
        Version: 3 (0x2)
        Serial Number: 5 (0x5)
    Signature Algorithm: sha1WithRSAEncryption
        Issuer: C=CN, L=Shanghai, O=Hundsun, OU=FUND, CN=Lele
        Validity
            Not Before: Sep 20 05:50:07 2015 GMT
            Not After : Sep 19 05:50:07 2016 GMT
        Subject: C=CN, L=Shanghai, O=HUNDSUN, OU=FUND, CN=CLIENT
        Subject Public Key Info:
            Public Key Algorithm: rsaEncryption
                Public-Key: (2048 bit)
                Modulus:
                    00:c4:82:a4:8b:1b:17:5d:1a:df:b2:3c:42:b3:7a:
                    68:85:b4:29:8a:9f:39:45:df:1c:4a:eb:8a:0a:d8:
                    0c:60:a4:6b:80:e6:8a:2b:c5:3e:85:bd:a1:6f:b5:
                    2c:13:11:f0:29:59:86:88:3f:02:2c:67:23:01:9b:
                    84:92:0d:e8:7f:2f:70:df:39:4c:e9:55:53:39:f6:
                    64:fd:fd:1f:18:76:09:f8:6e:13:24:9e:ce:f8:52:
                    2b:b3:c2:f3:a8:77:4e:8a:90:5c:f3:a3:83:db:40:
                    61:e0:94:df:74:7a:bb:8e:dd:50:3a:e9:df:bc:5a:
                    bf:17:4b:f0:d7:be:f6:38:ce:a9:4b:01:9d:e9:38:
                    f7:a3:31:3d:93:35:04:f4:fa:14:5a:68:b1:01:85:
                    a9:cc:f8:ed:05:9e:53:64:cf:e5:15:cd:ec:63:ca:
                    1a:10:4c:41:2f:5d:50:71:fc:ca:d4:af:61:2b:84:
                    1c:b0:2f:49:7d:d9:63:63:71:44:ac:d2:dd:47:ff:
                    dc:17:f0:60:f3:3c:fa:3e:60:d4:52:b0:6d:de:39:
                    8e:e8:93:c1:a9:c0:86:20:99:27:17:7d:a7:a5:a8:
                    53:4f:05:85:8e:86:df:3a:13:3e:73:44:bb:3f:62:
                    f1:ff:c0:fb:77:54:ab:ab:21:cd:a4:ee:8e:84:b6:
                    ad:59
                Exponent: 65537 (0x10001)
        X509v3 extensions:
            X509v3 Basic Constraints: 
                CA:FALSE
            Netscape Cert Type: 
                SSL Server
            Netscape Comment: 
                OpenSSL Generated Certificate
            X509v3 Subject Key Identifier: 
                E5:A8:F4:50:C6:E5:67:1C:2E:CB:68:D3:2C:EF:88:81:B3:05:1D:67
            X509v3 Authority Key Identifier: 
                keyid:49:F7:B1:8C:53:3E:59:23:5F:EA:46:93:F9:5E:C4:95:A7:00:51:5A

    Signature Algorithm: sha1WithRSAEncryption
         83:0f:c1:34:5c:57:1e:fe:32:6e:d3:bf:7d:29:fd:a6:6c:b5:
         71:56:0e:13:88:c0:9e:b3:ff:a6:a3:dd:ac:c1:27:18:2d:12:
         ee:c3:e0:75:60:eb:b6:24:80:67:e7:7f:36:52:2f:d3:c8:fd:
         d0:4c:99:b0:0c:20:94:6d:ee:c3:cb:d7:8b:c9:63:64:48:a3:
         e1:73:64:da:03:5c:04:a5:28:e9:8c:b4:3f:b8:fb:21:86:f7:
         1a:8c:74:27:40:d1:1c:bd:dc:e6:2f:36:4f:7e:10:0f:e2:a3:
         ad:41:74:60:0c:71:ee:6a:e1:50:81:18:97:c6:6d:fe:c0:b2:
         28:98:b4:46:5d:7a:0c:b5:cc:a5:e7:3c:41:28:1c:16:e4:68:
         88:7c:59:74:18:e5:2b:16:7e:e8:0b:4b:2a:32:34:7a:87:80:
         81:42:16:57:02:1a:ff:66:d9:70:de:e9:00:0f:96:40:f6:61:
         49:f9:27:c0:5b:52:4a:26:36:55:cc:b7:02:bb:b3:d2:b6:33:
         da:ff:de:00:b0:36:c0:0b:06:0f:f6:59:f2:90:ce:b1:e0:09:
         ef:5e:ee:ad:aa:2b:fc:08:6b:e4:0b:c7:53:f5:0a:2f:2f:0f:
         d8:78:28:48:5c:5d:7c:ff:e9:a6:e2:e8:2f:45:2e:7a:69:4f:
         36:8f:5b:00:86:cc:94:29:90:f4:11:95:5f:83:e6:f9:78:ce:
         c3:30:5a:4b:4e:3b:6b:11:d0:c2:e5:6a:32:0c:2d:77:05:b1:
         88:d7:02:79:14:0c:4c:9d:07:b8:cb:a6:bc:6e:82:10:c9:43:
         b0:21:1e:86:3d:f0:d2:60:9c:c0:4d:4b:a1:98:3e:6d:84:d0:
         c5:bd:a7:6c:c7:e3:33:a1:68:ad:66:05:f2:d7:47:29:c0:f9:
         5c:99:02:08:f4:c0:8d:64:74:40:33:ae:86:90:14:22:2b:14:
         4e:09:43:dd:0d:5c:04:74:0c:b6:0f:71:56:ab:75:5b:4d:7a:
         f2:45:48:30:e4:8e:6b:fa:49:b6:7e:8d:fa:2c:17:50:eb:29:
         b1:55:c8:88:ae:3c:68:6a:34:08:b7:4f:33:6e:cf:1d:fa:d4:
         ae:07:46:85:66:79:64:9a:7a:d0:6d:a9:6e:fc:65:3f:9f:de:
         0a:d1:a7:36:a1:e2:79:91:27:2d:3d:ef:d7:f6:15:a2:2c:51:
         1b:b3:79:a6:b1:ee:55:2b:64:77:b3:02:99:d4:b7:18:16:89:
         69:ea:42:72:49:e0:df:af:0a:f9:6e:8d:d3:64:c4:26:35:ee:
         ec:cb:d0:cb:b6:e4:65:72:fd:5a:b1:15:0f:a6:8b:8e:c0:63:
         e8:ac:0d:2d:6a:ce:3a:31
-----BEGIN CERTIFICATE-----
MIIErTCCApWgAwIBAgIBBTANBgkqhkiG9w0BAQUFADBQMQswCQYDVQQGEwJDTjER
MA8GA1UEBwwIU2hhbmdoYWkxEDAOBgNVBAoMB0h1bmRzdW4xDTALBgNVBAsMBEZV
TkQxDTALBgNVBAMMBExlbGUwHhcNMTUwOTIwMDU1MDA3WhcNMTYwOTE5MDU1MDA3
WjBSMQswCQYDVQQGEwJDTjERMA8GA1UEBwwIU2hhbmdoYWkxEDAOBgNVBAoMB0hV
TkRTVU4xDTALBgNVBAsMBEZVTkQxDzANBgNVBAMMBkNMSUVOVDCCASIwDQYJKoZI
hvcNAQEBBQADggEPADCCAQoCggEBAMSCpIsbF10a37I8QrN6aIW0KYqfOUXfHErr
igrYDGCka4DmiivFPoW9oW+1LBMR8ClZhog/AixnIwGbhJIN6H8vcN85TOlVUzn2
ZP39Hxh2CfhuEySezvhSK7PC86h3ToqQXPOjg9tAYeCU33R6u47dUDrp37xavxdL
8Ne+9jjOqUsBnek496MxPZM1BPT6FFposQGFqcz47QWeU2TP5RXN7GPKGhBMQS9d
UHH8ytSvYSuEHLAvSX3ZY2NxRKzS3Uf/3BfwYPM8+j5g1FKwbd45juiTwanAhiCZ
Jxd9p6WoU08FhY6G3zoTPnNEuz9i8f/A+3dUq6shzaTujoS2rVkCAwEAAaOBjzCB
jDAJBgNVHRMEAjAAMBEGCWCGSAGG+EIBAQQEAwIGQDAsBglghkgBhvhCAQ0EHxYd
T3BlblNTTCBHZW5lcmF0ZWQgQ2VydGlmaWNhdGUwHQYDVR0OBBYEFOWo9FDG5Wcc
Lsto0yzviIGzBR1nMB8GA1UdIwQYMBaAFEn3sYxTPlkjX+pGk/lexJWnAFFaMA0G
CSqGSIb3DQEBBQUAA4ICAQCDD8E0XFce/jJu0799Kf2mbLVxVg4TiMCes/+mo92s
wScYLRLuw+B1YOu2JIBn5382Ui/TyP3QTJmwDCCUbe7Dy9eLyWNkSKPhc2TaA1wE
pSjpjLQ/uPshhvcajHQnQNEcvdzmLzZPfhAP4qOtQXRgDHHuauFQgRiXxm3+wLIo
mLRGXXoMtcyl5zxBKBwW5GiIfFl0GOUrFn7oC0sqMjR6h4CBQhZXAhr/Ztlw3ukA
D5ZA9mFJ+SfAW1JKJjZVzLcCu7PStjPa/94AsDbACwYP9lnykM6x4AnvXu6tqiv8
CGvkC8dT9QovLw/YeChIXF18/+mm4ugvRS56aU82j1sAhsyUKZD0EZVfg+b5eM7D
MFpLTjtrEdDC5WoyDC13BbGI1wJ5FAxMnQe4y6a8boIQyUOwIR6GPfDSYJzATUuh
mD5thNDFvadsx+MzoWitZgXy10cpwPlcmQII9MCNZHRAM66GkBQiKxROCUPdDVwE
dAy2D3FWq3VbTXryRUgw5I5r+km2fo36LBdQ6ymxVciIrjxoajQIt08zbs8d+tSu
B0aFZnlkmnrQbalu/GU/n94K0ac2oeJ5kSctPe/X9hWiLFEbs3mmse5VK2R3swKZ
1LcYFolp6kJySeDfrwr5bo3TZMQmNe7sy9DLtuRlcv1asRUPpouOwGPorA0tas46
MQ==
-----END CERTIFICATE-----
